; Function Attrs: mustprogress uwtable
define hidden void @_ZN4cvc58internal6theory4bags9BagSolver26checkNonNegativeCountTermsERKNS0_12NodeTemplateILb1EEES7_(ptr noundef nonnull align 8 dereferenceable(240) %0, ptr noundef nonnull readonly align 8 captures(none) dereferenceable(8) %1, ptr noundef nonnull readonly align 8 captures(none) dereferenceable(8) %2) local_unnamed_addr #3 align 2 personality ptr @__gxx_personality_v0 {
  %4 = alloca %"class.cvc5::internal::theory::bags::InferInfo", align 8
  %5 = alloca %"class.cvc5::internal::NodeTemplate", align 8
  %6 = alloca %"class.cvc5::internal::NodeTemplate", align 8
  call void @llvm.lifetime.start.p0(i64 104, ptr nonnull %4) #24
  %7 = load ptr, ptr %1, align 8, !tbaa !36
  store ptr %7, ptr %5, align 8, !tbaa !36
  %8 = load i64, ptr %7, align 8
  %9 = lshr i64 %8, 40
  %10 = trunc nuw nsw i64 %9 to i32
  %11 = and i32 %10, 1048575
  %12 = icmp samesign ult i32 %11, 1048574
  br i1 %12, label %13, label %18, !prof !39

13:                                               ; preds = %3
  %14 = add i64 %8, 1099511627776
  %15 = and i64 %14, 1152920405095219200
  %16 = and i64 %8, -1152920405095219201
  %17 = or disjoint i64 %15, %16
  store i64 %17, ptr %7, align 8
  br label %_ZN4cvc58internal12NodeTemplateILb1EEC2ERKS2_.exit

18:                                               ; preds = %3
  %19 = icmp eq i32 %11, 1048574
  br i1 %19, label %20, label %_ZN4cvc58internal12NodeTemplateILb1EEC2ERKS2_.exit, !prof !38

20:                                               ; preds = %18
  %21 = or i64 %8, 1152920405095219200
  store i64 %21, ptr %7, align 8
  tail call void @_ZN4cvc58internal4expr9NodeValue20markRefCountMaxedOutEv(ptr noundef nonnull align 8 dereferenceable(24) %7)
  br label %_ZN4cvc58internal12NodeTemplateILb1EEC2ERKS2_.exit

_ZN4cvc58internal12NodeTemplateILb1EEC2ERKS2_.exit: ; preds = %13, %18, %20
  %22 = load ptr, ptr %2, align 8, !tbaa !36
  store ptr %22, ptr %6, align 8, !tbaa !36
  %23 = load i64, ptr %22, align 8
  %24 = lshr i64 %23, 40
  %25 = trunc nuw nsw i64 %24 to i32
  %26 = and i32 %25, 1048575
  %27 = icmp samesign ult i32 %26, 1048574
  br i1 %27, label %28, label %33, !prof !39

28:                                               ; preds = %_ZN4cvc58internal12NodeTemplateILb1EEC2ERKS2_.exit
  %29 = add i64 %23, 1099511627776
  %30 = and i64 %29, 1152920405095219200
  %31 = and i64 %23, -1152920405095219201
  %32 = or disjoint i64 %30, %31
  store i64 %32, ptr %22, align 8
  br label %_ZN4cvc58internal12NodeTemplateILb1EEC2ERKS2_.exit9

33:                                               ; preds = %_ZN4cvc58internal12NodeTemplateILb1EEC2ERKS2_.exit
  %34 = icmp eq i32 %26, 1048574
  br i1 %34, label %35, label %_ZN4cvc58internal12NodeTemplateILb1EEC2ERKS2_.exit9, !prof !38

35:                                               ; preds = %33
  %36 = or i64 %23, 1152920405095219200
  store i64 %36, ptr %22, align 8
  invoke void @_ZN4cvc58internal4expr9NodeValue20markRefCountMaxedOutEv(ptr noundef nonnull align 8 dereferenceable(24) %22)
          to label %_ZN4cvc58internal12NodeTemplateILb1EEC2ERKS2_.exit9 unwind label %69

_ZN4cvc58internal12NodeTemplateILb1EEC2ERKS2_.exit9: ; preds = %33, %28, %35
  %37 = getelementptr inbounds nuw i8, ptr %0, i64 24
  invoke void @_ZN4cvc58internal6theory4bags18InferenceGenerator16nonNegativeCountENS0_12NodeTemplateILb1EEES5_(ptr dead_on_unwind nonnull writable sret(%"class.cvc5::internal::theory::bags::InferInfo") align 8 %4, ptr noundef nonnull align 8 dereferenceable(56) %37, ptr noundef nonnull %5, ptr noundef nonnull %6)
          to label %38 unwind label %71

38:                                               ; preds = %_ZN4cvc58internal12NodeTemplateILb1EEC2ERKS2_.exit9
  %39 = load ptr, ptr %6, align 8, !tbaa !36
  %40 = load i64, ptr %39, align 8
  %41 = and i64 %40, 1152920405095219200
  %.not.i.i = icmp eq i64 %41, 1152920405095219200
  br i1 %.not.i.i, label %_ZN4cvc58internal12NodeTemplateILb1EED2Ev.exit, label %42, !prof !38

42:                                               ; preds = %38
  %43 = add i64 %40, 1152920405095219200
  %44 = and i64 %43, 1152920405095219200
  %45 = and i64 %40, -1152920405095219201
  %46 = or disjoint i64 %44, %45
  store i64 %46, ptr %39, align 8
  %47 = icmp eq i64 %44, 0
  br i1 %47, label %48, label %_ZN4cvc58internal12NodeTemplateILb1EED2Ev.exit, !prof !38

48:                                               ; preds = %42
  invoke void @_ZN4cvc58internal4expr9NodeValue15markForDeletionEv(ptr noundef nonnull align 8 dereferenceable(24) %39)
          to label %_ZN4cvc58internal12NodeTemplateILb1EED2Ev.exit unwind label %49

49:                                               ; preds = %48
  %50 = landingpad { ptr, i32 }
          catch ptr null
  %51 = extractvalue { ptr, i32 } %50, 0
  call void @__clang_call_terminate(ptr %51) #26
  unreachable

_ZN4cvc58internal12NodeTemplateILb1EED2Ev.exit:   ; preds = %38, %42, %48
  %52 = load ptr, ptr %5, align 8, !tbaa !36
  %53 = load i64, ptr %52, align 8
  %54 = and i64 %53, 1152920405095219200
  %.not.i.i10 = icmp eq i64 %54, 1152920405095219200
  br i1 %.not.i.i10, label %_ZN4cvc58internal12NodeTemplateILb1EED2Ev.exit11, label %55, !prof !38

55:                                               ; preds = %_ZN4cvc58internal12NodeTemplateILb1EED2Ev.exit
  %56 = add i64 %53, 1152920405095219200
  %57 = and i64 %56, 1152920405095219200
  %58 = and i64 %53, -1152920405095219201
  %59 = or disjoint i64 %57, %58
  store i64 %59, ptr %52, align 8
  %60 = icmp eq i64 %57, 0
  br i1 %60, label %61, label %_ZN4cvc58internal12NodeTemplateILb1EED2Ev.exit11, !prof !38

61:                                               ; preds = %55
  invoke void @_ZN4cvc58internal4expr9NodeValue15markForDeletionEv(ptr noundef nonnull align 8 dereferenceable(24) %52)
          to label %_ZN4cvc58internal12NodeTemplateILb1EED2Ev.exit11 unwind label %62

62:                                               ; preds = %61
  %63 = landingpad { ptr, i32 }
          catch ptr null
  %64 = extractvalue { ptr, i32 } %63, 0
  call void @__clang_call_terminate(ptr %64) #26
  unreachable

_ZN4cvc58internal12NodeTemplateILb1EED2Ev.exit11: ; preds = %_ZN4cvc58internal12NodeTemplateILb1EED2Ev.exit, %55, %61
  %65 = getelementptr inbounds nuw i8, ptr %0, i64 80
  %66 = load ptr, ptr %65, align 8, !tbaa !59
  %67 = invoke noundef zeroext i1 @_ZN4cvc58internal6theory24InferenceManagerBuffered20lemmaTheoryInferenceEPNS1_15TheoryInferenceE(ptr noundef nonnull align 8 dereferenceable(337) %66, ptr noundef nonnull %4)
          to label %68 unwind label %74

68:                                               ; preds = %_ZN4cvc58internal12NodeTemplateILb1EED2Ev.exit11
  call void @_ZN4cvc58internal6theory4bags9InferInfoD2Ev(ptr noundef nonnull align 8 dereferenceable(104) %4) #24
  call void @llvm.lifetime.end.p0(i64 104, ptr nonnull %4) #24
  ret void

69:                                               ; preds = %35
  %70 = landingpad { ptr, i32 }
          cleanup
  br label %73

71:                                               ; preds = %_ZN4cvc58internal12NodeTemplateILb1EEC2ERKS2_.exit9
  %72 = landingpad { ptr, i32 }
          cleanup
  call void @_ZN4cvc58internal12NodeTemplateILb1EED2Ev(ptr noundef nonnull align 8 dereferenceable(8) %6) #24
  br label %73

73:                                               ; preds = %71, %69
  %.pn = phi { ptr, i32 } [ %72, %71 ], [ %70, %69 ]
  call void @_ZN4cvc58internal12NodeTemplateILb1EED2Ev(ptr noundef nonnull align 8 dereferenceable(8) %5) #24
  br label %76

74:                                               ; preds = %_ZN4cvc58internal12NodeTemplateILb1EED2Ev.exit11
  %75 = landingpad { ptr, i32 }
          cleanup
  call void @_ZN4cvc58internal6theory4bags9InferInfoD2Ev(ptr noundef nonnull align 8 dereferenceable(104) %4) #24
  br label %76

76:                                               ; preds = %74, %73
  %.pn7 = phi { ptr, i32 } [ %75, %74 ], [ %.pn, %73 ]
  call void @llvm.lifetime.end.p0(i64 104, ptr nonnull %4) #24
  resume { ptr, i32 } %.pn7
}